-----BEGIN CERTIFICATE-----
MIIGCTCCA/GgAwIBAgIICi6gYftB7m8wDQYJKoZIhvcNAQELBQAwaDEaMBgGA1UE
AwwRUm9vdCBDQSBJbmRvbmVzaWExPTA7BgNVBAoMNE1pbmlzdHJ5IG9mIENvbW11
bmljYXRpb24gYW5kIEluZm9ybWF0aW9uIFRlY2hub2xvZ3kxCzAJBgNVBAYTAklE
MB4XDTE0MTExMDAzNDg1MloXDTI0MTExMDAzNDg1MlowaDEaMBgGA1UEAwwRUm9v
dCBDQSBJbmRvbmVzaWExPTA7BgNVBAoMNE1pbmlzdHJ5IG9mIENvbW11bmljYXRp
b24gYW5kIEluZm9ybWF0aW9uIFRlY2hub2xvZ3kxCzAJBgNVBAYTAklEMIICIjAN
BgkqhkiG9w0BAQEFAAOCAg8AMIICCgKCAgEAthHkQIHCK5IMTJGsUumuYIx+X8qn
uGlUSHcvL4qUvIs7pw/a/ysjNO1sWN6SZ3ErysZWWDUV79lJzyzrmhPxpC8zXscH
KVDsiJxjQAhQhJKg4Jy4BCy/zMZuht6LCrDiRyv7/ctaFFt3RpTcF3VzzLsLj72z
nJUir4OxYXMHTu4XAzGAXrtDen1UvXCUdoknWdXNN5nRa/XJuNEWePsO+2EBmHoQ
jWu6/f/sTtg335ffWgp6qXto+i1daN9veV0VKmdh1d6qXQOVpi0dhBlQMyx9OuS5
I6mEx4v9/B7XOQ2uKiBZsCZ3LhB5DctaQVMCtQbU8b9uELxBeLw/9lHljZ63oDwe
DhWnPU41FrbRCzNM1B0R+w4NYj0SO6WpxOAn6AupYyKh4vSjtLyMeaFwFp9vYyV1
qVNZDmuEfDO0ato0w5kAV5LcCgI4Ezt55rB/HCoS1j6x00xRNXG8jJs2B/aiJZbj
cMgFdITDnDd4ZGtamRhqfUnXOCaSxamSlLIPW/VAUHkoc/illdlfsfVS0P0V5H5c
caqMGBI0PbyU18VviqIaYv3POZQ+FpxWg7j/Y2I8OlNpRYZ/74QXok2fbHO4OkIw
mPHxlt4EnCqMYTAAr9LfvI/kI1Qgtw35kn8kllVU7lGy8jA9qqwW5TClnbY0aZdO
DgvBEr1Yfm2kpckCAwEAAaOBtjCBszAdBgNVHQ4EFgQU0+VnFDhPBKfpaJnl4ybI
vERgkNUwDwYDVR0TAQH/BAUwAwEB/zAfBgNVHSMEGDAWgBTT5WcUOE8Ep+lomeXj
Jsi8RGCQ1TBQBgNVHSAESTBHMEUGCGCCaAEBAQEBMDkwNwYIKwYBBQUHAgEWK2h0
dHA6Ly8vd3d3LnJvb3RjYS5vci5pZC9DUC9wc3JlSW5kdWtjcC5wZGYwDgYDVR0P
AQH/BAQDAgGGMA0GCSqGSIb3DQEBCwUAA4ICAQBBBLzQhP/NaR7/S1jvm/3stqWz
NPLobbahQ1LrD2jQWpemlnflhf25RAv/5ED22u+w0F4M9U92RmHlM3cJrJyDHEui
6EAIFmA+MUeCo4wRGg5KHx8zIWjjo2O1VN+QyfOsBUdnycPojTNsL/Y1tPl8b9Yj
XIl9EK9Uo5x5U6pmWGQSgzhTnY9ii0s2SYQcJSoT0/SlTVL+/nT9k/XK5VmBcpIs
xxeL8yO3uu9r1uwzBggRV+9HD89er7oqC3m+xQo86+izpiPYMneVC8R1Ukr/h3zC
i3G5pUIE4TMrdPe3jL7c5VeA/97NUW8gZJPlP8yj9FQ+2SPg3ddJ1tPtpn2KirVw
XPezfB6cGoZAIRd6aPhXZsOYuuY9MJMDVEphoEBy5e9C7uy9s/vekZ87qSSS+9s5
xC404z0YXvE9WY8Ar+Pz0jR1ZL343DlgfWGmiPVolWoyQQsmkhXUBF1fMdYriOTQ
GiiuDJvh3+bsYKwdihnzFN74eeO+Qdq+ewacfJaSUwwV5yS5l1SFemjMns2b8swy
banq7DgcMRg6PauDb4nHm7zTmruEr02fMuLw+uzSToeHWd9LWx4tmhhOJ6lYO3B2
XW2ebYPDtYGVoYv1QybZmcCE9dwh2Hdu0GLD9fYB7/DAV0rsKEdWYbf+xNrq6ngo
mKI3tpvJtlLMduW0JA==
-----END CERTIFICATE-----
Certificate:
    Data:
        Version: 3 (0x2)
        Serial Number: 733700131995643503 (0xa2ea061fb41ee6f)
    Signature Algorithm: sha256WithRSAEncryption
        Issuer: CN=Root CA Indonesia, O=Ministry of Communication and Information Technology, C=ID
        Validity
            Not Before: Nov 10 03:48:52 2014 GMT
            Not After : Nov 10 03:48:52 2024 GMT
        Subject: CN=Root CA Indonesia, O=Ministry of Communication and Information Technology, C=ID
        Subject Public Key Info:
            Public Key Algorithm: rsaEncryption
                Public-Key: (4096 bit)
                Modulus:
                    00:b6:11:e4:40:81:c2:2b:92:0c:4c:91:ac:52:e9:
                    ae:60:8c:7e:5f:ca:a7:b8:69:54:48:77:2f:2f:8a:
                    94:bc:8b:3b:a7:0f:da:ff:2b:23:34:ed:6c:58:de:
                    92:67:71:2b:ca:c6:56:58:35:15:ef:d9:49:cf:2c:
                    eb:9a:13:f1:a4:2f:33:5e:c7:07:29:50:ec:88:9c:
                    63:40:08:50:84:92:a0:e0:9c:b8:04:2c:bf:cc:c6:
                    6e:86:de:8b:0a:b0:e2:47:2b:fb:fd:cb:5a:14:5b:
                    77:46:94:dc:17:75:73:cc:bb:0b:8f:bd:b3:9c:95:
                    22:af:83:b1:61:73:07:4e:ee:17:03:31:80:5e:bb:
                    43:7a:7d:54:bd:70:94:76:89:27:59:d5:cd:37:99:
                    d1:6b:f5:c9:b8:d1:16:78:fb:0e:fb:61:01:98:7a:
                    10:8d:6b:ba:fd:ff:ec:4e:d8:37:df:97:df:5a:0a:
                    7a:a9:7b:68:fa:2d:5d:68:df:6f:79:5d:15:2a:67:
                    61:d5:de:aa:5d:03:95:a6:2d:1d:84:19:50:33:2c:
                    7d:3a:e4:b9:23:a9:84:c7:8b:fd:fc:1e:d7:39:0d:
                    ae:2a:20:59:b0:26:77:2e:10:79:0d:cb:5a:41:53:
                    02:b5:06:d4:f1:bf:6e:10:bc:41:78:bc:3f:f6:51:
                    e5:8d:9e:b7:a0:3c:1e:0e:15:a7:3d:4e:35:16:b6:
                    d1:0b:33:4c:d4:1d:11:fb:0e:0d:62:3d:12:3b:a5:
                    a9:c4:e0:27:e8:0b:a9:63:22:a1:e2:f4:a3:b4:bc:
                    8c:79:a1:70:16:9f:6f:63:25:75:a9:53:59:0e:6b:
                    84:7c:33:b4:6a:da:34:c3:99:00:57:92:dc:0a:02:
                    38:13:3b:79:e6:b0:7f:1c:2a:12:d6:3e:b1:d3:4c:
                    51:35:71:bc:8c:9b:36:07:f6:a2:25:96:e3:70:c8:
                    05:74:84:c3:9c:37:78:64:6b:5a:99:18:6a:7d:49:
                    d7:38:26:92:c5:a9:92:94:b2:0f:5b:f5:40:50:79:
                    28:73:f8:a5:95:d9:5f:b1:f5:52:d0:fd:15:e4:7e:
                    5c:71:aa:8c:18:12:34:3d:bc:94:d7:c5:6f:8a:a2:
                    1a:62:fd:cf:39:94:3e:16:9c:56:83:b8:ff:63:62:
                    3c:3a:53:69:45:86:7f:ef:84:17:a2:4d:9f:6c:73:
                    b8:3a:42:30:98:f1:f1:96:de:04:9c:2a:8c:61:30:
                    00:af:d2:df:bc:8f:e4:23:54:20:b7:0d:f9:92:7f:
                    24:96:55:54:ee:51:b2:f2:30:3d:aa:ac:16:e5:30:
                    a5:9d:b6:34:69:97:4e:0e:0b:c1:12:bd:58:7e:6d:
                    a4:a5:c9
                Exponent: 65537 (0x10001)
        X509v3 extensions:
            X509v3 Subject Key Identifier: 
                D3:E5:67:14:38:4F:04:A7:E9:68:99:E5:E3:26:C8:BC:44:60:90:D5
            X509v3 Basic Constraints: critical
                CA:TRUE
            X509v3 Authority Key Identifier: 
                keyid:D3:E5:67:14:38:4F:04:A7:E9:68:99:E5:E3:26:C8:BC:44:60:90:D5

            X509v3 Certificate Policies: 
                Policy: 2.16.360.1.1.1.1.1
                  CPS: http:///www.rootca.or.id/CP/psreIndukcp.pdf

            X509v3 Key Usage: critical
                Digital Signature, Certificate Sign, CRL Sign
    Signature Algorithm: sha256WithRSAEncryption
         41:04:bc:d0:84:ff:cd:69:1e:ff:4b:58:ef:9b:fd:ec:b6:a5:
         b3:34:f2:e8:6d:b6:a1:43:52:eb:0f:68:d0:5a:97:a6:96:77:
         e5:85:fd:b9:44:0b:ff:e4:40:f6:da:ef:b0:d0:5e:0c:f5:4f:
         76:46:61:e5:33:77:09:ac:9c:83:1c:4b:a2:e8:40:08:16:60:
         3e:31:47:82:a3:8c:11:1a:0e:4a:1f:1f:33:21:68:e3:a3:63:
         b5:54:df:90:c9:f3:ac:05:47:67:c9:c3:e8:8d:33:6c:2f:f6:
         35:b4:f9:7c:6f:d6:23:5c:89:7d:10:af:54:a3:9c:79:53:aa:
         66:58:64:12:83:38:53:9d:8f:62:8b:4b:36:49:84:1c:25:2a:
         13:d3:f4:a5:4d:52:fe:fe:74:fd:93:f5:ca:e5:59:81:72:92:
         2c:c7:17:8b:f3:23:b7:ba:ef:6b:d6:ec:33:06:08:11:57:ef:
         47:0f:cf:5e:af:ba:2a:0b:79:be:c5:0a:3c:eb:e8:b3:a6:23:
         d8:32:77:95:0b:c4:75:52:4a:ff:87:7c:c2:8b:71:b9:a5:42:
         04:e1:33:2b:74:f7:b7:8c:be:dc:e5:57:80:ff:de:cd:51:6f:
         20:64:93:e5:3f:cc:a3:f4:54:3e:d9:23:e0:dd:d7:49:d6:d3:
         ed:a6:7d:8a:8a:b5:70:5c:f7:b3:7c:1e:9c:1a:86:40:21:17:
         7a:68:f8:57:66:c3:98:ba:e6:3d:30:93:03:54:4a:61:a0:40:
         72:e5:ef:42:ee:ec:bd:b3:fb:de:91:9f:3b:a9:24:92:fb:db:
         39:c4:2e:34:e3:3d:18:5e:f1:3d:59:8f:00:af:e3:f3:d2:34:
         75:64:bd:f8:dc:39:60:7d:61:a6:88:f5:68:95:6a:32:41:0b:
         26:92:15:d4:04:5d:5f:31:d6:2b:88:e4:d0:1a:28:ae:0c:9b:
         e1:df:e6:ec:60:ac:1d:8a:19:f3:14:de:f8:79:e3:be:41:da:
         be:7b:06:9c:7c:96:92:53:0c:15:e7:24:b9:97:54:85:7a:68:
         cc:9e:cd:9b:f2:cc:32:6d:a9:ea:ec:38:1c:31:18:3a:3d:ab:
         83:6f:89:c7:9b:bc:d3:9a:bb:84:af:4d:9f:32:e2:f0:fa:ec:
         d2:4e:87:87:59:df:4b:5b:1e:2d:9a:18:4e:27:a9:58:3b:70:
         76:5d:6d:9e:6d:83:c3:b5:81:95:a1:8b:f5:43:26:d9:99:c0:
         84:f5:dc:21:d8:77:6e:d0:62:c3:f5:f6:01:ef:f0:c0:57:4a:
         ec:28:47:56:61:b7:fe:c4:da:ea:ea:78:28:98:a2:37:b6:9b:
         c9:b6:52:cc:76:e5:b4:24
