-----BEGIN CERTIFICATE-----
MIIFhjCCA26gAwIBAgIISQ4q6yvGIrgwDQYJKoZIhvcNAQELBQAwPTELMAkGA1UE
BhMCSUQxFzAVBgNVBAoTDk1DSVQgSW5kb25lc2lhMRUwEwYDVQQDEwxSb290IEtv
bWluZm8wHhcNMTYwNjAxMTUwNTE0WhcNMjYwNjAxMTUwNTE0WjBkMQswCQYDVQQG
EwJJRDEXMBUGA1UEChMOTUNJVCBJbmRvbmVzaWExJjAkBgNVBAsTHURpcmVrdG9y
YXQgS2VhbWFuYW4gSW5mb3JtYXNpMRQwEgYDVQQDEwtLb21pbmZvIENBLjCCAiIw
DQYJKoZIhvcNAQEBBQADggIPADCCAgoCggIBAIt3IwDJVDaWmtkeAQ8EqPWFWon1
aGvas6+dzS7pi/zL/IknBGo1ihFG8Kx3mBGfoD9Q5Iy5KbXfhuSS49woVkp8LmSy
3oM+9+Yv2tfgOJxtf1XV3GrOOpi6oxDYqfQw1UDloRgucr7ZoXkp3tiJhwhzEsKy
XLr2nKjIP9KE6TrM8EoStZqJOFDCiEXEdd25ON4ZvHjASodVkqoOWvlVuygyJ5gr
CaIuk/0yMOzRO+TI++CI5ce48zHd8Sl4xs4hfPZ+JVnSOEzWXS1WiTOti4FPwibv
4TniYvhXuOxuUqUFMEnAO0uxI6W6kC+VpZDxMDQy0Dprs5QiWCHuwq7PTod7Ekqf
02SDIlcUgY/wyvPRejHWi++iaujmnXDGNL6QEbuEP2qMuzPoVbYpRTIo90hlGBNL
R8EOw0sLtZCPL8TsK1kyHxlV6qQF5dmD5ZWvoPrc1s+PV167ufSBN1vNIdyxcKXX
9MKc214exU1++JARBnDmX1JEhFcQao2t/fC7+dsnwtb5IvLokeSvngqVO0YAtAbR
MXYuT4WLeUBGKkOxev5ZzXtNT3cobQR99ZiWpImGKNIUpp46gP2TpQ5X+SaBFEyt
JcqZGHQiATsR34wLLSYITGjBWkGlkHhCY3+aQZncX+XHXUZHSgn68uehdvCf1kH5
YFglRqOeCtuK8ebrAgMBAAGjYzBhMB0GA1UdDgQWBBQtOm83ccVmIO82m2gsoPNt
UsRLrjAPBgNVHRMBAf8EBTADAQH/MB8GA1UdIwQYMBaAFHf97s3TkO0cmnwlCO1N
jqLDtBB7MA4GA1UdDwEB/wQEAwIBhjANBgkqhkiG9w0BAQsFAAOCAgEAWibG0tOG
z5g5hHigI37IssdZKabiPcJ5OI5riNKpPzTZ9oVCbt3ukv5fAzFa8Pv/s0lpn7Ei
jEJEr+xX1piXHyfZ933F6K51/bqVfw4tlvjZ7Ztk4g5nyaBuSBOVhGKqsoXQ29qk
5NNg8nLSuxCVD+CEw+OVt4p2rfCbmRbaZ3UnwKuJ0xdhX4LsLxvhzD/P2AXnYGlU
vVVaT7mzwGPhqo+64ueH9a6F581yhXlil2Rdf+j507kgImDFNCHwWO4twplyPHRP
VbqfULWjkJ6U7l1h86qTo0bHoc0ch0tO52sxNlW5phtCAaXMnjHnzlqYfxstY3GN
mGLUYxgK2IRlokzmdA6FnV7zvSRSXtu6nFwTsui0sC6YVNlG4FFN3PaofQxySYZR
6Hupr7hHmv2uF1u9hPdcmd4E9gfdsayIrLcDk/hwgndumwIbmtM+s3xRZGxCO1eJ
81owqdD6AM2PoA21MQalb2V6+q4+3oYkimNBDMsP+URnSLVLGTCuI92pKugMS3HA
lsSm9wD+rbWeNnpyIgaeC4xd/nT6sF4IT+qMRSYoxV/zoTWtXjTG1Zjn17bVbwqK
4W5a8QljgMP7u54DZz2I7wO/uPfJlarE+ZTIQIMKSsPCtvGtPUI4+Po1mJ1x8BxZ
JOWa97IkWcwYn/otpq+GmjqvaMNOJ2Z28ZU=
-----END CERTIFICATE-----
Certificate:
    Data:
        Version: 3 (0x2)
        Serial Number: 5264192203982774968 (0x490e2aeb2bc622b8)
    Signature Algorithm: sha256WithRSAEncryption
        Issuer: C=ID, O=MCIT Indonesia, CN=Root Kominfo
        Validity
            Not Before: Jun  1 15:05:14 2016 GMT
            Not After : Jun  1 15:05:14 2026 GMT
        Subject: C=ID, O=MCIT Indonesia, OU=Direktorat Keamanan Informasi, CN=Kominfo CA.
        Subject Public Key Info:
            Public Key Algorithm: rsaEncryption
                Public-Key: (4096 bit)
                Modulus:
                    00:8b:77:23:00:c9:54:36:96:9a:d9:1e:01:0f:04:
                    a8:f5:85:5a:89:f5:68:6b:da:b3:af:9d:cd:2e:e9:
                    8b:fc:cb:fc:89:27:04:6a:35:8a:11:46:f0:ac:77:
                    98:11:9f:a0:3f:50:e4:8c:b9:29:b5:df:86:e4:92:
                    e3:dc:28:56:4a:7c:2e:64:b2:de:83:3e:f7:e6:2f:
                    da:d7:e0:38:9c:6d:7f:55:d5:dc:6a:ce:3a:98:ba:
                    a3:10:d8:a9:f4:30:d5:40:e5:a1:18:2e:72:be:d9:
                    a1:79:29:de:d8:89:87:08:73:12:c2:b2:5c:ba:f6:
                    9c:a8:c8:3f:d2:84:e9:3a:cc:f0:4a:12:b5:9a:89:
                    38:50:c2:88:45:c4:75:dd:b9:38:de:19:bc:78:c0:
                    4a:87:55:92:aa:0e:5a:f9:55:bb:28:32:27:98:2b:
                    09:a2:2e:93:fd:32:30:ec:d1:3b:e4:c8:fb:e0:88:
                    e5:c7:b8:f3:31:dd:f1:29:78:c6:ce:21:7c:f6:7e:
                    25:59:d2:38:4c:d6:5d:2d:56:89:33:ad:8b:81:4f:
                    c2:26:ef:e1:39:e2:62:f8:57:b8:ec:6e:52:a5:05:
                    30:49:c0:3b:4b:b1:23:a5:ba:90:2f:95:a5:90:f1:
                    30:34:32:d0:3a:6b:b3:94:22:58:21:ee:c2:ae:cf:
                    4e:87:7b:12:4a:9f:d3:64:83:22:57:14:81:8f:f0:
                    ca:f3:d1:7a:31:d6:8b:ef:a2:6a:e8:e6:9d:70:c6:
                    34:be:90:11:bb:84:3f:6a:8c:bb:33:e8:55:b6:29:
                    45:32:28:f7:48:65:18:13:4b:47:c1:0e:c3:4b:0b:
                    b5:90:8f:2f:c4:ec:2b:59:32:1f:19:55:ea:a4:05:
                    e5:d9:83:e5:95:af:a0:fa:dc:d6:cf:8f:57:5e:bb:
                    b9:f4:81:37:5b:cd:21:dc:b1:70:a5:d7:f4:c2:9c:
                    db:5e:1e:c5:4d:7e:f8:90:11:06:70:e6:5f:52:44:
                    84:57:10:6a:8d:ad:fd:f0:bb:f9:db:27:c2:d6:f9:
                    22:f2:e8:91:e4:af:9e:0a:95:3b:46:00:b4:06:d1:
                    31:76:2e:4f:85:8b:79:40:46:2a:43:b1:7a:fe:59:
                    cd:7b:4d:4f:77:28:6d:04:7d:f5:98:96:a4:89:86:
                    28:d2:14:a6:9e:3a:80:fd:93:a5:0e:57:f9:26:81:
                    14:4c:ad:25:ca:99:18:74:22:01:3b:11:df:8c:0b:
                    2d:26:08:4c:68:c1:5a:41:a5:90:78:42:63:7f:9a:
                    41:99:dc:5f:e5:c7:5d:46:47:4a:09:fa:f2:e7:a1:
                    76:f0:9f:d6:41:f9:60:58:25:46:a3:9e:0a:db:8a:
                    f1:e6:eb
                Exponent: 65537 (0x10001)
        X509v3 extensions:
            X509v3 Subject Key Identifier: 
                2D:3A:6F:37:71:C5:66:20:EF:36:9B:68:2C:A0:F3:6D:52:C4:4B:AE
            X509v3 Basic Constraints: critical
                CA:TRUE
            X509v3 Authority Key Identifier: 
                keyid:77:FD:EE:CD:D3:90:ED:1C:9A:7C:25:08:ED:4D:8E:A2:C3:B4:10:7B

            X509v3 Key Usage: critical
                Digital Signature, Certificate Sign, CRL Sign
    Signature Algorithm: sha256WithRSAEncryption
         5a:26:c6:d2:d3:86:cf:98:39:84:78:a0:23:7e:c8:b2:c7:59:
         29:a6:e2:3d:c2:79:38:8e:6b:88:d2:a9:3f:34:d9:f6:85:42:
         6e:dd:ee:92:fe:5f:03:31:5a:f0:fb:ff:b3:49:69:9f:b1:22:
         8c:42:44:af:ec:57:d6:98:97:1f:27:d9:f7:7d:c5:e8:ae:75:
         fd:ba:95:7f:0e:2d:96:f8:d9:ed:9b:64:e2:0e:67:c9:a0:6e:
         48:13:95:84:62:aa:b2:85:d0:db:da:a4:e4:d3:60:f2:72:d2:
         bb:10:95:0f:e0:84:c3:e3:95:b7:8a:76:ad:f0:9b:99:16:da:
         67:75:27:c0:ab:89:d3:17:61:5f:82:ec:2f:1b:e1:cc:3f:cf:
         d8:05:e7:60:69:54:bd:55:5a:4f:b9:b3:c0:63:e1:aa:8f:ba:
         e2:e7:87:f5:ae:85:e7:cd:72:85:79:62:97:64:5d:7f:e8:f9:
         d3:b9:20:22:60:c5:34:21:f0:58:ee:2d:c2:99:72:3c:74:4f:
         55:ba:9f:50:b5:a3:90:9e:94:ee:5d:61:f3:aa:93:a3:46:c7:
         a1:cd:1c:87:4b:4e:e7:6b:31:36:55:b9:a6:1b:42:01:a5:cc:
         9e:31:e7:ce:5a:98:7f:1b:2d:63:71:8d:98:62:d4:63:18:0a:
         d8:84:65:a2:4c:e6:74:0e:85:9d:5e:f3:bd:24:52:5e:db:ba:
         9c:5c:13:b2:e8:b4:b0:2e:98:54:d9:46:e0:51:4d:dc:f6:a8:
         7d:0c:72:49:86:51:e8:7b:a9:af:b8:47:9a:fd:ae:17:5b:bd:
         84:f7:5c:99:de:04:f6:07:dd:b1:ac:88:ac:b7:03:93:f8:70:
         82:77:6e:9b:02:1b:9a:d3:3e:b3:7c:51:64:6c:42:3b:57:89:
         f3:5a:30:a9:d0:fa:00:cd:8f:a0:0d:b5:31:06:a5:6f:65:7a:
         fa:ae:3e:de:86:24:8a:63:41:0c:cb:0f:f9:44:67:48:b5:4b:
         19:30:ae:23:dd:a9:2a:e8:0c:4b:71:c0:96:c4:a6:f7:00:fe:
         ad:b5:9e:36:7a:72:22:06:9e:0b:8c:5d:fe:74:fa:b0:5e:08:
         4f:ea:8c:45:26:28:c5:5f:f3:a1:35:ad:5e:34:c6:d5:98:e7:
         d7:b6:d5:6f:0a:8a:e1:6e:5a:f1:09:63:80:c3:fb:bb:9e:03:
         67:3d:88:ef:03:bf:b8:f7:c9:95:aa:c4:f9:94:c8:40:83:0a:
         4a:c3:c2:b6:f1:ad:3d:42:38:f8:fa:35:98:9d:71:f0:1c:59:
         24:e5:9a:f7:b2:24:59:cc:18:9f:fa:2d:a6:af:86:9a:3a:af:
         68:c3:4e:27:66:76:f1:95
